; Function Attrs: mustprogress uwtable
define internal void @"_ZN32pxrInternal_v0_24__pxrReserved__13TfFunctionRefIFvRKNS_14SdfPathPatternEEE9_InvokeFnIZNKS_17SdfPathExpression7GetTextB5cxx11EvE3$_2EEvPKvS3_"(ptr nocapture noundef readonly %0, ptr noundef nonnull align 8 dereferenceable(57) %1) #0 align 2 personality ptr @__gxx_personality_v0 {
  %3 = alloca %"class.std::__cxx11::basic_string", align 8
  call void @llvm.lifetime.start.p0(i64 32, ptr nonnull %3)
  call void @_ZNK32pxrInternal_v0_24__pxrReserved__14SdfPathPattern7GetTextB5cxx11Ev(ptr dead_on_unwind nonnull writable sret(%"class.std::__cxx11::basic_string") align 8 %3, ptr noundef nonnull align 8 dereferenceable(57) %1)
  %4 = load ptr, ptr %0, align 8
  %5 = invoke noundef nonnull align 8 dereferenceable(32) ptr @_ZNSt7__cxx1112basic_stringIcSt11char_traitsIcESaIcEEpLERKS4_(ptr noundef nonnull align 8 dereferenceable(32) %4, ptr noundef nonnull align 8 dereferenceable(32) %3)
          to label %"_ZZNK32pxrInternal_v0_24__pxrReserved__17SdfPathExpression7GetTextB5cxx11EvENK3$_2clERKNS_14SdfPathPatternE.exit" unwind label %6

6:                                                ; preds = %2
  %7 = landingpad { ptr, i32 }
          cleanup
  call void @_ZNSt7__cxx1112basic_stringIcSt11char_traitsIcESaIcEED1Ev(ptr noundef nonnull align 8 dereferenceable(32) %3) #24
  resume { ptr, i32 } %7

"_ZZNK32pxrInternal_v0_24__pxrReserved__17SdfPathExpression7GetTextB5cxx11EvENK3$_2clERKNS_14SdfPathPatternE.exit": ; preds = %2
  call void @_ZNSt7__cxx1112basic_stringIcSt11char_traitsIcESaIcEED1Ev(ptr noundef nonnull align 8 dereferenceable(32) %3) #24
  call void @llvm.lifetime.end.p0(i64 32, ptr nonnull %3)
  ret void
}